target datalayout = "e-m:e-p270:32:32-p271:32:32-p272:64:64-i64:64-i128:128-f80:128-n8:16:32:64-S128"
target triple = "x86_64-pc-linux-gnu"

%struct._php_stream_ops = type { ptr, ptr, ptr, ptr, ptr, ptr, ptr, ptr, ptr }
%struct._php_stream = type { ptr, ptr, %struct._php_stream_filter_chain, %struct._php_stream_filter_chain, ptr, ptr, %struct._zval_struct, i16, [16 x i8], i32, ptr, ptr, ptr, ptr, i64, ptr, i64, i64, i64, i64, ptr }
%struct._php_stream_filter_chain = type { ptr, ptr, ptr }
%struct._zval_struct = type { %union._zend_value, %union.anon, %union.anon.2 }
%union._zend_value = type { i64 }
%union.anon = type { i32 }
%union.anon.2 = type { i32 }
%struct._zend_string = type { %struct._zend_refcounted_h, i64, i64, [1 x i8] }
%struct._zend_refcounted_h = type { i32, %union.anon.3 }
%union.anon.3 = type { i32 }
%struct.php_stdio_stream_data = type { ptr, i32, i32, i32, ptr, ptr, i64, %struct.stat }
%struct.stat = type { i64, i64, i64, i32, i32, i32, i32, i64, i64, i64, i64, %struct.timespec, %struct.timespec, %struct.timespec, [3 x i64] }
%struct.timespec = type { i64, i64 }

@.str = private unnamed_addr constant [4 x i8] c"r+b\00", align 1
@.str.1 = private unnamed_addr constant [26 x i8] c"Unable to allocate stream\00", align 1
@php_stream_stdio_ops = dso_local global %struct._php_stream_ops { ptr @php_stdiop_write, ptr @php_stdiop_read, ptr @php_stdiop_close, ptr @php_stdiop_flush, ptr @.str.3, ptr @php_stdiop_seek, ptr @php_stdiop_cast, ptr @php_stdiop_stat, ptr @php_stdiop_set_option }, align 8
@php_plain_files_wrapper = dso_local global { ptr, ptr, i32, [4 x i8] } { ptr @php_plain_files_wrapper_ops, ptr null, i32 0, [4 x i8] zeroinitializer }, align 8

; Function Attrs: nounwind uwtable
define internal ptr @_php_stream_fopen_from_fd_int(i32 noundef %0, ptr noundef %1, ptr noundef %2) #0 {
  %4 = alloca i32, align 4
  %5 = alloca ptr, align 8
  %6 = alloca ptr, align 8
  %7 = alloca ptr, align 8
  store i32 %0, ptr %4, align 4, !tbaa !12
  store ptr %1, ptr %5, align 8, !tbaa !4
  store ptr %2, ptr %6, align 8, !tbaa !4
  call void @llvm.lifetime.start.p0(i64 8, ptr %7) #13
  %8 = load ptr, ptr %6, align 8, !tbaa !4
  %9 = icmp ne ptr %8, null
  br i1 %9, label %10, label %12

10:                                               ; preds = %3
  %11 = call noalias ptr @__zend_malloc(i64 noundef 192) #15
  br label %14

12:                                               ; preds = %3
  %13 = call noalias ptr @_emalloc_192()
  br label %14

14:                                               ; preds = %12, %10
  %15 = phi ptr [ %11, %10 ], [ %13, %12 ]
  store ptr %15, ptr %7, align 8, !tbaa !31
  %16 = load ptr, ptr %7, align 8, !tbaa !31
  call void @llvm.memset.p0.i64(ptr align 8 %16, i8 0, i64 192, i1 false)
  %17 = load ptr, ptr %7, align 8, !tbaa !31
  %18 = getelementptr inbounds nuw %struct.php_stdio_stream_data, ptr %17, i32 0, i32 0
  store ptr null, ptr %18, align 8, !tbaa !42
  %19 = load ptr, ptr %7, align 8, !tbaa !31
  %20 = getelementptr inbounds nuw %struct.php_stdio_stream_data, ptr %19, i32 0, i32 2
  %21 = load i32, ptr %20, align 4
  %22 = and i32 %21, -33
  %23 = or i32 %22, 32
  store i32 %23, ptr %20, align 4
  %24 = load ptr, ptr %7, align 8, !tbaa !31
  %25 = getelementptr inbounds nuw %struct.php_stdio_stream_data, ptr %24, i32 0, i32 2
  %26 = load i32, ptr %25, align 4
  %27 = and i32 %26, -3
  %28 = or i32 %27, 0
  store i32 %28, ptr %25, align 4
  %29 = load ptr, ptr %7, align 8, !tbaa !31
  %30 = getelementptr inbounds nuw %struct.php_stdio_stream_data, ptr %29, i32 0, i32 3
  store i32 8, ptr %30, align 8, !tbaa !41
  %31 = load ptr, ptr %7, align 8, !tbaa !31
  %32 = getelementptr inbounds nuw %struct.php_stdio_stream_data, ptr %31, i32 0, i32 2
  %33 = load i32, ptr %32, align 4
  %34 = and i32 %33, -2
  %35 = or i32 %34, 0
  store i32 %35, ptr %32, align 4
  %36 = load ptr, ptr %7, align 8, !tbaa !31
  %37 = getelementptr inbounds nuw %struct.php_stdio_stream_data, ptr %36, i32 0, i32 4
  store ptr null, ptr %37, align 8, !tbaa !37
  %38 = load i32, ptr %4, align 4, !tbaa !12
  %39 = load ptr, ptr %7, align 8, !tbaa !31
  %40 = getelementptr inbounds nuw %struct.php_stdio_stream_data, ptr %39, i32 0, i32 1
  store i32 %38, ptr %40, align 8, !tbaa !43
  %41 = load ptr, ptr %7, align 8, !tbaa !31
  %42 = load ptr, ptr %6, align 8, !tbaa !4
  %43 = load ptr, ptr %5, align 8, !tbaa !4
  %44 = call ptr @_php_stream_alloc(ptr noundef @php_stream_stdio_ops, ptr noundef %41, ptr noundef %42, ptr noundef %43)
  call void @llvm.lifetime.end.p0(i64 8, ptr %7) #13
  ret ptr %44
}

; Function Attrs: nounwind uwtable
define dso_local ptr @_php_stream_fopen_temporary_file(ptr noundef %0, ptr noundef %1, ptr noundef %2) #0 {
  %4 = alloca ptr, align 8
  %5 = alloca ptr, align 8
  %6 = alloca ptr, align 8
  %7 = alloca ptr, align 8
  %8 = alloca ptr, align 8
  %9 = alloca i32, align 4
  %10 = alloca ptr, align 8
  %11 = alloca ptr, align 8
  %12 = alloca i32, align 4
  store ptr %0, ptr %5, align 8, !tbaa !4
  store ptr %1, ptr %6, align 8, !tbaa !4
  store ptr %2, ptr %7, align 8, !tbaa !14
  call void @llvm.lifetime.start.p0(i64 8, ptr %8) #13
  store ptr null, ptr %8, align 8, !tbaa !16
  call void @llvm.lifetime.start.p0(i64 4, ptr %9) #13
  %13 = load ptr, ptr %5, align 8, !tbaa !4
  %14 = load ptr, ptr %6, align 8, !tbaa !4
  %15 = call i32 @php_open_temporary_fd(ptr noundef %13, ptr noundef %14, ptr noundef %8)
  store i32 %15, ptr %9, align 4, !tbaa !12
  %16 = load i32, ptr %9, align 4, !tbaa !12
  %17 = icmp ne i32 %16, -1
  br i1 %17, label %18, label %54

18:                                               ; preds = %3
  call void @llvm.lifetime.start.p0(i64 8, ptr %10) #13
  %19 = load ptr, ptr %7, align 8, !tbaa !14
  %20 = icmp ne ptr %19, null
  br i1 %20, label %21, label %24

21:                                               ; preds = %18
  %22 = load ptr, ptr %8, align 8, !tbaa !16
  %23 = load ptr, ptr %7, align 8, !tbaa !14
  store ptr %22, ptr %23, align 8, !tbaa !16
  br label %24

24:                                               ; preds = %21, %18
  %25 = load i32, ptr %9, align 4, !tbaa !12
  %26 = call ptr @_php_stream_fopen_from_fd_int(i32 noundef %25, ptr noundef @.str, ptr noundef null)
  store ptr %26, ptr %10, align 8, !tbaa !18
  %27 = load ptr, ptr %10, align 8, !tbaa !18
  %28 = icmp ne ptr %27, null
  br i1 %28, label %29, label %50

29:                                               ; preds = %24
  call void @llvm.lifetime.start.p0(i64 8, ptr %11) #13
  %30 = load ptr, ptr %10, align 8, !tbaa !18
  %31 = getelementptr inbounds nuw %struct._php_stream, ptr %30, i32 0, i32 1
  %32 = load ptr, ptr %31, align 8, !tbaa !20
  store ptr %32, ptr %11, align 8, !tbaa !31
  %33 = load ptr, ptr %10, align 8, !tbaa !18
  %34 = getelementptr inbounds nuw %struct._php_stream, ptr %33, i32 0, i32 4
  store ptr @php_plain_files_wrapper, ptr %34, align 8, !tbaa !32
  %35 = load ptr, ptr %8, align 8, !tbaa !16
  %36 = getelementptr inbounds nuw %struct._zend_string, ptr %35, i32 0, i32 3
  %37 = getelementptr inbounds [1 x i8], ptr %36, i64 0, i64 0
  %38 = load ptr, ptr %8, align 8, !tbaa !16
  %39 = getelementptr inbounds nuw %struct._zend_string, ptr %38, i32 0, i32 2
  %40 = load i64, ptr %39, align 8, !tbaa !33
  %41 = call noalias ptr @_estrndup(ptr noundef %37, i64 noundef %40)
  %42 = load ptr, ptr %10, align 8, !tbaa !18
  %43 = getelementptr inbounds nuw %struct._php_stream, ptr %42, i32 0, i32 12
  store ptr %41, ptr %43, align 8, !tbaa !36
  %44 = load ptr, ptr %8, align 8, !tbaa !16
  %45 = load ptr, ptr %11, align 8, !tbaa !31
  %46 = getelementptr inbounds nuw %struct.php_stdio_stream_data, ptr %45, i32 0, i32 4
  store ptr %44, ptr %46, align 8, !tbaa !37
  %47 = load ptr, ptr %11, align 8, !tbaa !31
  %48 = getelementptr inbounds nuw %struct.php_stdio_stream_data, ptr %47, i32 0, i32 3
  store i32 8, ptr %48, align 8, !tbaa !41
  %49 = load ptr, ptr %10, align 8, !tbaa !18
  store ptr %49, ptr %4, align 8
  store i32 1, ptr %12, align 4
  call void @llvm.lifetime.end.p0(i64 8, ptr %11) #13
  br label %53

50:                                               ; preds = %24
  %51 = load i32, ptr %9, align 4, !tbaa !12
  %52 = call i32 @close(i32 noundef %51)
  call void (ptr, i32, ptr, ...) @php_error_docref(ptr noundef null, i32 noundef 2, ptr noundef @.str.1)
  store ptr null, ptr %4, align 8
  store i32 1, ptr %12, align 4
  br label %53

53:                                               ; preds = %50, %29
  call void @llvm.lifetime.end.p0(i64 8, ptr %10) #13
  br label %55

54:                                               ; preds = %3
  store ptr null, ptr %4, align 8
  store i32 1, ptr %12, align 4
  br label %55

55:                                               ; preds = %54, %53
  call void @llvm.lifetime.end.p0(i64 4, ptr %9) #13
  call void @llvm.lifetime.end.p0(i64 8, ptr %8) #13
  %56 = load ptr, ptr %4, align 8
  ret ptr %56
}