; Function Attrs: nounwind uwtable
define dso_local ptr @_php_stream_fopen_temporary_file(ptr noundef %0, ptr noundef %1, ptr noundef writeonly captures(address_is_null) %2) local_unnamed_addr #3 {
  %4 = alloca ptr, align 8
  call void @llvm.lifetime.start.p0(i64 8, ptr nonnull %4) #17
  store ptr null, ptr %4, align 8, !tbaa !9
  %5 = call i32 @php_open_temporary_fd(ptr noundef %0, ptr noundef %1, ptr noundef nonnull %4) #17
  %.not = icmp eq i32 %5, -1
  br i1 %.not, label %30, label %6

6:                                                ; preds = %3
  %.not17 = icmp eq ptr %2, null
  br i1 %.not17, label %9, label %7

7:                                                ; preds = %6
  %8 = load ptr, ptr %4, align 8, !tbaa !9
  store ptr %8, ptr %2, align 8, !tbaa !9
  br label %9

9:                                                ; preds = %7, %6
  %10 = call noalias ptr @_emalloc_192() #17
  %11 = getelementptr inbounds nuw i8, ptr %10, i64 12
  call void @llvm.memset.p0.i64(ptr noundef nonnull align 8 dereferenceable(192) %10, i8 0, i64 192, i1 false)
  %12 = getelementptr inbounds nuw i8, ptr %10, i64 16
  store i32 8, ptr %12, align 8, !tbaa !12
  store i32 32, ptr %11, align 4
  %13 = getelementptr inbounds nuw i8, ptr %10, i64 8
  store i32 %5, ptr %13, align 8, !tbaa !19
  %14 = call ptr @_php_stream_alloc(ptr noundef nonnull @php_stream_stdio_ops, ptr noundef nonnull %10, ptr noundef null, ptr noundef nonnull @.str) #17
  %.not18 = icmp eq ptr %14, null
  br i1 %.not18, label %28, label %15

15:                                               ; preds = %9
  %16 = getelementptr inbounds nuw i8, ptr %14, i64 8
  %17 = load ptr, ptr %16, align 8, !tbaa !20
  %18 = getelementptr inbounds nuw i8, ptr %14, i64 64
  store ptr @php_plain_files_wrapper, ptr %18, align 8, !tbaa !30
  %19 = load ptr, ptr %4, align 8, !tbaa !9
  %20 = getelementptr inbounds nuw i8, ptr %19, i64 24
  %21 = getelementptr inbounds nuw i8, ptr %19, i64 16
  %22 = load i64, ptr %21, align 8, !tbaa !31
  %23 = call noalias ptr @_estrndup(ptr noundef nonnull %20, i64 noundef %22) #17
  %24 = getelementptr inbounds nuw i8, ptr %14, i64 136
  store ptr %23, ptr %24, align 8, !tbaa !34
  %25 = load ptr, ptr %4, align 8, !tbaa !9
  %26 = getelementptr inbounds nuw i8, ptr %17, i64 24
  store ptr %25, ptr %26, align 8, !tbaa !35
  %27 = getelementptr inbounds nuw i8, ptr %17, i64 16
  store i32 8, ptr %27, align 8, !tbaa !12
  br label %30

28:                                               ; preds = %9
  %29 = call i32 @close(i32 noundef %5) #17
  call void (ptr, i32, ptr, ...) @php_error_docref(ptr noundef null, i32 noundef 2, ptr noundef nonnull @.str.1) #17
  br label %30

30:                                               ; preds = %3, %15, %28
  %.1 = phi ptr [ %14, %15 ], [ null, %28 ], [ null, %3 ]
  call void @llvm.lifetime.end.p0(i64 8, ptr nonnull %4) #17
  ret ptr %.1
}